; Function Attrs: nounwind uwtable
define dso_local zeroext i1 @acct_policy_validate(ptr noundef %0, ptr noundef readonly captures(address_is_null) %1, ptr noundef %2, ptr noundef %3, ptr noundef %4, ptr noundef %5, ptr noundef %6, i1 noundef zeroext %7) local_unnamed_addr #0 {
  %9 = alloca %struct.assoc_mgr_lock_t, align 4
  %10 = alloca %struct.acct_policy_validate_args, align 8
  %11 = zext i1 %7 to i8
  call void @llvm.lifetime.start.p0(i64 28, ptr nonnull %9) #15
  call void @llvm.memcpy.p0.p0.i64(ptr noundef nonnull align 4 dereferenceable(28) %9, ptr noundef nonnull align 4 dereferenceable(28) @__const.acct_policy_job_time_out.locks, i64 28, i1 false)
  call void @llvm.lifetime.start.p0(i64 48, ptr nonnull %10) #15
  store ptr %6, ptr %10, align 8
  %12 = getelementptr inbounds nuw i8, ptr %10, i64 8
  store ptr %3, ptr %12, align 8
  %13 = getelementptr inbounds nuw i8, ptr %10, i64 16
  store ptr %0, ptr %13, align 8
  %14 = getelementptr inbounds nuw i8, ptr %10, i64 24
  store ptr %4, ptr %14, align 8
  %15 = getelementptr inbounds nuw i8, ptr %10, i64 32
  store ptr %5, ptr %15, align 8
  %16 = getelementptr inbounds nuw i8, ptr %10, i64 40
  store i8 %11, ptr %16, align 8
  %17 = getelementptr inbounds nuw i8, ptr %10, i64 41
  call void @llvm.memset.p0.i64(ptr noundef nonnull align 1 dereferenceable(7) %17, i8 0, i64 7, i1 false)
  call void @assoc_mgr_lock(ptr noundef nonnull %9) #15
  %.not = icmp eq ptr %2, null
  br i1 %.not, label %18, label %33

18:                                               ; preds = %8
  %.not.i.i = icmp eq ptr %4, null
  %.not27.i.i = icmp eq ptr %1, null
  br i1 %.not.i.i, label %28, label %19

19:                                               ; preds = %18
  br i1 %.not27.i.i, label %_list_acct_policy_validate.exit, label %20

20:                                               ; preds = %19
  %21 = getelementptr inbounds nuw i8, ptr %1, i64 296
  %22 = load ptr, ptr %21, align 8
  %.not30.i.i = icmp eq ptr %22, null
  br i1 %.not30.i.i, label %_list_acct_policy_validate.exit, label %23

23:                                               ; preds = %20
  %24 = getelementptr inbounds nuw i8, ptr %4, i64 20
  %25 = load i32, ptr %24, align 4
  %26 = and i32 %25, 128
  %.not31.i.i = icmp eq i32 %26, 0
  %spec.select.i = select i1 %.not31.i.i, ptr %22, ptr %4
  %spec.select19.i = select i1 %.not31.i.i, ptr %4, ptr %22
  %27 = icmp eq ptr %22, %4
  %spec.store.select.i.i = select i1 %27, ptr null, ptr %spec.select19.i
  br label %_list_acct_policy_validate.exit

28:                                               ; preds = %18
  br i1 %.not27.i.i, label %_list_acct_policy_validate.exit, label %29

29:                                               ; preds = %28
  %30 = getelementptr inbounds nuw i8, ptr %1, i64 296
  %31 = load ptr, ptr %30, align 8
  br label %_list_acct_policy_validate.exit

_list_acct_policy_validate.exit:                  ; preds = %19, %20, %23, %28, %29
  %.018.i = phi ptr [ null, %28 ], [ %spec.store.select.i.i, %23 ], [ null, %20 ], [ null, %19 ], [ null, %29 ]
  %.1.i = phi ptr [ null, %28 ], [ %spec.select.i, %23 ], [ %4, %20 ], [ %4, %19 ], [ %31, %29 ]
  %32 = call fastcc zeroext i1 @_acct_policy_validate(ptr noundef %0, ptr noundef readonly %1, ptr noundef %3, ptr noundef %.1.i, ptr noundef %.018.i, ptr noundef %5, ptr noundef %6, i1 noundef zeroext %7)
  br label %36

33:                                               ; preds = %8
  %34 = call i32 @list_for_each(ptr noundef nonnull %2, ptr noundef nonnull @_list_acct_policy_validate, ptr noundef nonnull %10) #15
  %35 = icmp sgt i32 %34, -1
  br label %36

36:                                               ; preds = %33, %_list_acct_policy_validate.exit
  %.011 = phi i1 [ %35, %33 ], [ %32, %_list_acct_policy_validate.exit ]
  call void @assoc_mgr_unlock(ptr noundef nonnull %9) #15
  call void @llvm.lifetime.end.p0(i64 48, ptr nonnull %10) #15
  call void @llvm.lifetime.end.p0(i64 28, ptr nonnull %9) #15
  ret i1 %.011
}